; Function Attrs: mustprogress uwtable
define internal void @_ZN12_GLOBAL__N_120DOCTEST_ANON_FUNC_25Ev() #5 personality ptr @__gxx_personality_v0 {
  %1 = alloca %"struct.(anonymous namespace)::DOCTEST_ANON_CLASS_24", align 8
  call fastcc void @_ZN12_GLOBAL__N_115SimplifyFixtureC2Ev(ptr noundef nonnull align 8 dereferenceable(3600) %1)
  invoke fastcc void @_ZN12_GLOBAL__N_121DOCTEST_ANON_CLASS_241fEv(ptr noundef nonnull align 8 dereferenceable(3600) %1)
          to label %2 unwind label %13

2:                                                ; preds = %0
  %3 = getelementptr inbounds i8, ptr %1, i64 3584
  %4 = load ptr, ptr %3, align 8
  %.not.i.i.i = icmp eq ptr %4, null
  br i1 %.not.i.i.i, label %_ZN12_GLOBAL__N_121DOCTEST_ANON_CLASS_24D2Ev.exit, label %5

5:                                                ; preds = %2
  %6 = getelementptr inbounds i8, ptr %1, i64 3592
  %7 = load i8, ptr %6, align 8
  %8 = and i8 %7, 1
  store i8 %8, ptr %4, align 8
  br label %_ZN12_GLOBAL__N_121DOCTEST_ANON_CLASS_24D2Ev.exit

_ZN12_GLOBAL__N_121DOCTEST_ANON_CLASS_24D2Ev.exit: ; preds = %2, %5
  %9 = getelementptr inbounds i8, ptr %1, i64 2512
  call void @_ZN4Luau5ScopeD2Ev(ptr noundef nonnull align 8 dereferenceable(848) %9) #20
  %10 = getelementptr inbounds i8, ptr %1, i64 2328
  call void @_ZN4Luau15ToStringOptionsD2Ev(ptr noundef nonnull align 8 dereferenceable(184) %10) #20
  %11 = getelementptr inbounds i8, ptr %1, i64 2232
  %12 = getelementptr inbounds i8, ptr %1, i64 2272
  call void @_ZN4Luau14TypedAllocatorINS_11TypePackVarEED2Ev(ptr noundef nonnull align 8 dereferenceable(40) %12) #20
  call void @_ZN4Luau14TypedAllocatorINS_4TypeEED2Ev(ptr noundef nonnull align 8 dereferenceable(40) %11) #20
  call void @_ZN4Luau7FixtureD2Ev(ptr noundef nonnull align 8 dereferenceable(2232) %1) #20
  ret void

13:                                               ; preds = %0
  %14 = landingpad { ptr, i32 }
          cleanup
  call fastcc void @_ZN12_GLOBAL__N_121DOCTEST_ANON_CLASS_24D2Ev(ptr noundef nonnull align 8 dereferenceable(3600) %1) #20
  resume { ptr, i32 } %14
}